target datalayout = "e-m:e-p270:32:32-p271:32:32-p272:64:64-i64:64-i128:128-f80:128-n8:16:32:64-S128"
target triple = "x86_64-pc-linux-gnu"

%"struct.cv::ppf_match_3d::HSHTBL_i" = type { i64, ptr, ptr }
%"struct.cv::ppf_match_3d::hashnode_i" = type { i32, ptr, ptr }

; Function Attrs: mustprogress uwtable
define hidden noundef i32 @_ZN2cv12ppf_match_3d15hashtableInsertEPNS0_8HSHTBL_iEjPv(ptr noundef %0, i32 noundef %1, ptr noundef %2) #5 {
  %4 = alloca i32, align 4
  %5 = alloca ptr, align 8
  %6 = alloca i32, align 4
  %7 = alloca ptr, align 8
  %8 = alloca ptr, align 8
  %9 = alloca i64, align 8
  %10 = alloca i32, align 4
  store ptr %0, ptr %5, align 8, !tbaa !11
  store i32 %1, ptr %6, align 4, !tbaa !3
  store ptr %2, ptr %7, align 8, !tbaa !9
  call void @llvm.lifetime.start.p0(i64 8, ptr %8) #3
  call void @llvm.lifetime.start.p0(i64 8, ptr %9) #3
  %11 = load ptr, ptr %5, align 8, !tbaa !11
  %12 = getelementptr inbounds nuw %"struct.cv::ppf_match_3d::HSHTBL_i", ptr %11, i32 0, i32 2
  %13 = load ptr, ptr %12, align 8, !tbaa !18
  %14 = load i32, ptr %6, align 4, !tbaa !3
  %15 = call noundef i64 %13(i32 noundef %14)
  %16 = load ptr, ptr %5, align 8, !tbaa !11
  %17 = getelementptr inbounds nuw %"struct.cv::ppf_match_3d::HSHTBL_i", ptr %16, i32 0, i32 0
  %18 = load i64, ptr %17, align 8, !tbaa !17
  %19 = urem i64 %15, %18
  store i64 %19, ptr %9, align 8, !tbaa !7
  %20 = load ptr, ptr %5, align 8, !tbaa !11
  %21 = getelementptr inbounds nuw %"struct.cv::ppf_match_3d::HSHTBL_i", ptr %20, i32 0, i32 1
  %22 = load ptr, ptr %21, align 8, !tbaa !13
  %23 = load i64, ptr %9, align 8, !tbaa !7
  %24 = getelementptr inbounds nuw ptr, ptr %22, i64 %23
  %25 = load ptr, ptr %24, align 8, !tbaa !19
  store ptr %25, ptr %8, align 8, !tbaa !19
  br label %26

26:                                               ; preds = %39, %3
  %27 = load ptr, ptr %8, align 8, !tbaa !19
  %28 = icmp ne ptr %27, null
  br i1 %28, label %29, label %43

29:                                               ; preds = %26
  %30 = load ptr, ptr %8, align 8, !tbaa !19
  %31 = getelementptr inbounds nuw %"struct.cv::ppf_match_3d::hashnode_i", ptr %30, i32 0, i32 0
  %32 = load i32, ptr %31, align 8, !tbaa !26
  %33 = load i32, ptr %6, align 4, !tbaa !3
  %34 = icmp ne i32 %32, %33
  br i1 %34, label %35, label %39

35:                                               ; preds = %29
  %36 = load ptr, ptr %7, align 8, !tbaa !9
  %37 = load ptr, ptr %8, align 8, !tbaa !19
  %38 = getelementptr inbounds nuw %"struct.cv::ppf_match_3d::hashnode_i", ptr %37, i32 0, i32 1
  store ptr %36, ptr %38, align 8, !tbaa !27
  store i32 0, ptr %4, align 4
  store i32 1, ptr %10, align 4
  br label %69

39:                                               ; preds = %29
  %40 = load ptr, ptr %8, align 8, !tbaa !19
  %41 = getelementptr inbounds nuw %"struct.cv::ppf_match_3d::hashnode_i", ptr %40, i32 0, i32 2
  %42 = load ptr, ptr %41, align 8, !tbaa !21
  store ptr %42, ptr %8, align 8, !tbaa !19
  br label %26, !llvm.loop !28

43:                                               ; preds = %26
  %44 = call noalias ptr @malloc(i64 noundef 24) #12
  store ptr %44, ptr %8, align 8, !tbaa !19
  %45 = load ptr, ptr %8, align 8, !tbaa !19
  %46 = icmp ne ptr %45, null
  br i1 %46, label %48, label %47

47:                                               ; preds = %43
  store i32 -1, ptr %4, align 4
  store i32 1, ptr %10, align 4
  br label %69

48:                                               ; preds = %43
  %49 = load i32, ptr %6, align 4, !tbaa !3
  %50 = load ptr, ptr %8, align 8, !tbaa !19
  %51 = getelementptr inbounds nuw %"struct.cv::ppf_match_3d::hashnode_i", ptr %50, i32 0, i32 0
  store i32 %49, ptr %51, align 8, !tbaa !26
  %52 = load ptr, ptr %7, align 8, !tbaa !9
  %53 = load ptr, ptr %8, align 8, !tbaa !19
  %54 = getelementptr inbounds nuw %"struct.cv::ppf_match_3d::hashnode_i", ptr %53, i32 0, i32 1
  store ptr %52, ptr %54, align 8, !tbaa !27
  %55 = load ptr, ptr %5, align 8, !tbaa !11
  %56 = getelementptr inbounds nuw %"struct.cv::ppf_match_3d::HSHTBL_i", ptr %55, i32 0, i32 1
  %57 = load ptr, ptr %56, align 8, !tbaa !13
  %58 = load i64, ptr %9, align 8, !tbaa !7
  %59 = getelementptr inbounds nuw ptr, ptr %57, i64 %58
  %60 = load ptr, ptr %59, align 8, !tbaa !19
  %61 = load ptr, ptr %8, align 8, !tbaa !19
  %62 = getelementptr inbounds nuw %"struct.cv::ppf_match_3d::hashnode_i", ptr %61, i32 0, i32 2
  store ptr %60, ptr %62, align 8, !tbaa !21
  %63 = load ptr, ptr %8, align 8, !tbaa !19
  %64 = load ptr, ptr %5, align 8, !tbaa !11
  %65 = getelementptr inbounds nuw %"struct.cv::ppf_match_3d::HSHTBL_i", ptr %64, i32 0, i32 1
  %66 = load ptr, ptr %65, align 8, !tbaa !13
  %67 = load i64, ptr %9, align 8, !tbaa !7
  %68 = getelementptr inbounds nuw ptr, ptr %66, i64 %67
  store ptr %63, ptr %68, align 8, !tbaa !19
  store i32 0, ptr %4, align 4
  store i32 1, ptr %10, align 4
  br label %69

69:                                               ; preds = %48, %47, %35
  call void @llvm.lifetime.end.p0(i64 8, ptr %9) #3
  call void @llvm.lifetime.end.p0(i64 8, ptr %8) #3
  %70 = load i32, ptr %4, align 4
  ret i32 %70
}