; Function Attrs: mustprogress uwtable
define hidden noundef range(i32 -1, 1) i32 @_ZN2cv12ppf_match_3d15hashtableInsertEPNS0_8HSHTBL_iEjPv(ptr noundef readonly captures(none) %0, i32 noundef %1, ptr noundef %2) local_unnamed_addr #10 {
  %4 = getelementptr inbounds nuw i8, ptr %0, i64 16
  %5 = load ptr, ptr %4, align 8, !tbaa !12
  %6 = tail call noundef i64 %5(i32 noundef %1)
  %7 = load i64, ptr %0, align 8, !tbaa !11
  %8 = urem i64 %6, %7
  %9 = getelementptr inbounds nuw i8, ptr %0, i64 8
  %10 = load ptr, ptr %9, align 8, !tbaa !3
  %11 = getelementptr inbounds nuw ptr, ptr %10, i64 %8
  %.02227 = load ptr, ptr %11, align 8, !tbaa !13
  %.not28 = icmp eq ptr %.02227, null
  br i1 %.not28, label %._crit_edge, label %.lr.ph

.lr.ph:                                           ; preds = %3, %15
  %.02229 = phi ptr [ %.022, %15 ], [ %.02227, %3 ]
  %12 = load i32, ptr %.02229, align 8, !tbaa !21
  %.not25 = icmp eq i32 %12, %1
  br i1 %.not25, label %15, label %13

13:                                               ; preds = %.lr.ph
  %14 = getelementptr inbounds nuw i8, ptr %.02229, i64 8
  store ptr %2, ptr %14, align 8, !tbaa !22
  br label %21

15:                                               ; preds = %.lr.ph
  %16 = getelementptr inbounds nuw i8, ptr %.02229, i64 16
  %.022 = load ptr, ptr %16, align 8, !tbaa !13
  %.not = icmp eq ptr %.022, null
  br i1 %.not, label %._crit_edge, label %.lr.ph, !llvm.loop !23

._crit_edge:                                      ; preds = %15, %3
  %17 = tail call noalias dereferenceable_or_null(24) ptr @malloc(i64 noundef 24) #17
  %.not24 = icmp eq ptr %17, null
  br i1 %.not24, label %21, label %18

18:                                               ; preds = %._crit_edge
  store i32 %1, ptr %17, align 8, !tbaa !21
  %19 = getelementptr inbounds nuw i8, ptr %17, i64 8
  store ptr %2, ptr %19, align 8, !tbaa !22
  %20 = getelementptr inbounds nuw i8, ptr %17, i64 16
  store ptr %.02227, ptr %20, align 8, !tbaa !15
  store ptr %17, ptr %11, align 8, !tbaa !13
  br label %21

21:                                               ; preds = %._crit_edge, %18, %13
  %.0 = phi i32 [ 0, %13 ], [ 0, %18 ], [ -1, %._crit_edge ]
  ret i32 %.0
}